target datalayout = "e-m:e-p270:32:32-p271:32:32-p272:64:64-i64:64-i128:128-f80:128-n8:16:32:64-S128"
target triple = "x86_64-pc-linux-gnu"

%struct.H5D_chk_idx_info_t = type { ptr, ptr, ptr, ptr }
%struct.H5O_storage_chunk_t = type { i32, i64, ptr, %union.anon.4 }
%union.anon.4 = type { %struct.H5O_storage_chunk_btree_t }
%struct.H5O_storage_chunk_btree_t = type { i64, ptr }
%struct.H5O_storage_chunk_earray_t = type { i64, ptr }
%struct.H5O_loc_t = type { ptr, i64, i8 }

@H5D_init_g = external global i8, align 1
@H5_libterm_g = external global i8, align 1
@.str.2 = private unnamed_addr constant [103 x i8] c"generated/home/dtcxzyw/WorkSpace/Projects/compilers/llvm-opt-benchmark/bench/hdf5/hdf5/src/H5Dearray.c\00", align 1
@H5E_DATASET_g = external global i64, align 8
@H5E_CANTGET_g = external global i64, align 8
@H5E_CANTDEPEND_g = external global i64, align 8
@__func__.H5D__earray_idx_depend = private unnamed_addr constant [23 x i8] c"H5D__earray_idx_depend\00", align 1
@H5E_CANTPROTECT_g = external global i64, align 8
@.str.21 = private unnamed_addr constant [32 x i8] c"unable to protect object header\00", align 1
@.str.22 = private unnamed_addr constant [42 x i8] c"unable to get dataset object header proxy\00", align 1
@.str.23 = private unnamed_addr constant [57 x i8] c"unable to create flush dependency on object header proxy\00", align 1
@H5E_CANTUNPROTECT_g = external global i64, align 8
@.str.24 = private unnamed_addr constant [32 x i8] c"unable to release object header\00", align 1

; Function Attrs: nounwind uwtable
define internal i32 @H5D__earray_idx_depend(ptr noundef %0) #0 {
  %2 = alloca ptr, align 8
  %3 = alloca ptr, align 8
  %4 = alloca %struct.H5O_loc_t, align 8
  %5 = alloca ptr, align 8
  %6 = alloca i32, align 4
  %7 = alloca i8, align 1
  store ptr %0, ptr %2, align 8, !tbaa !3
  call void @llvm.lifetime.start.p0(i64 8, ptr %3) #8
  store ptr null, ptr %3, align 8, !tbaa !126
  call void @llvm.lifetime.start.p0(i64 24, ptr %4) #8
  call void @llvm.lifetime.start.p0(i64 8, ptr %5) #8
  call void @llvm.lifetime.start.p0(i64 4, ptr %6) #8
  store i32 0, ptr %6, align 4, !tbaa !12
  call void @llvm.lifetime.start.p0(i64 1, ptr %7) #8
  store i8 0, ptr %7, align 1, !tbaa !14
  %8 = load i8, ptr @H5D_init_g, align 1, !tbaa !14, !range !16, !noundef !17
  %9 = trunc i8 %8 to i1
  br i1 %9, label %14, label %10

10:                                               ; preds = %1
  %11 = load i8, ptr @H5_libterm_g, align 1, !tbaa !14, !range !16, !noundef !17
  %12 = trunc i8 %11 to i1
  %13 = xor i1 %12, true
  br label %14

14:                                               ; preds = %10, %1
  %15 = phi i1 [ true, %1 ], [ %13, %10 ]
  %16 = xor i1 %15, true
  %17 = xor i1 %16, true
  %18 = zext i1 %17 to i32
  %19 = sext i32 %18 to i64
  %20 = call i64 @llvm.expect.i64(i64 %19, i64 1)
  %21 = icmp ne i64 %20, 0
  br i1 %21, label %22, label %133

22:                                               ; preds = %14
  %23 = call i32 @H5O_loc_reset(ptr noundef %4)
  %24 = load ptr, ptr %2, align 8, !tbaa !3
  %25 = getelementptr inbounds nuw %struct.H5D_chk_idx_info_t, ptr %24, i32 0, i32 0
  %26 = load ptr, ptr %25, align 8, !tbaa !38
  %27 = getelementptr inbounds nuw %struct.H5O_loc_t, ptr %4, i32 0, i32 0
  store ptr %26, ptr %27, align 8, !tbaa !117
  %28 = load ptr, ptr %2, align 8, !tbaa !3
  %29 = getelementptr inbounds nuw %struct.H5D_chk_idx_info_t, ptr %28, i32 0, i32 3
  %30 = load ptr, ptr %29, align 8, !tbaa !27
  %31 = getelementptr inbounds nuw %struct.H5O_storage_chunk_t, ptr %30, i32 0, i32 3
  %32 = getelementptr inbounds nuw %struct.H5O_storage_chunk_earray_t, ptr %31, i32 0, i32 0
  %33 = load i64, ptr %32, align 8, !tbaa !26
  %34 = getelementptr inbounds nuw %struct.H5O_loc_t, ptr %4, i32 0, i32 1
  store i64 %33, ptr %34, align 8, !tbaa !119
  %35 = call ptr @H5O_protect(ptr noundef %4, i32 noundef 128, i1 noundef zeroext true)
  store ptr %35, ptr %3, align 8, !tbaa !126
  %36 = icmp eq ptr null, %35
  br i1 %36, label %37, label %56

37:                                               ; preds = %22
  br label %38

38:                                               ; preds = %37
  br label %39

39:                                               ; preds = %38
  br label %40

40:                                               ; preds = %39
  %41 = load i64, ptr @H5E_DATASET_g, align 8, !tbaa !10
  %42 = load i64, ptr @H5E_CANTPROTECT_g, align 8, !tbaa !10
  %43 = call i32 (ptr, ptr, i32, i64, i64, ptr, ...) @H5E_printf_stack(ptr noundef @.str.2, ptr noundef @__func__.H5D__earray_idx_depend, i32 noundef 698, i64 noundef %41, i64 noundef %42, ptr noundef @.str.21)
  br label %44

44:                                               ; preds = %40
  br label %45

45:                                               ; preds = %44
  store i8 1, ptr %7, align 1, !tbaa !14
  %46 = load i8, ptr %7, align 1, !tbaa !14, !range !16, !noundef !17
  %47 = trunc i8 %46 to i1
  %48 = zext i1 %47 to i8
  store i8 %48, ptr %7, align 1, !tbaa !14
  br label %49

49:                                               ; preds = %45
  br label %50

50:                                               ; preds = %49
  br label %51

51:                                               ; preds = %50
  store i32 -1, ptr %6, align 4, !tbaa !12
  br label %109

52:                                               ; No predecessors!
  br label %53

53:                                               ; preds = %52
  br label %54

54:                                               ; preds = %53
  br label %55

55:                                               ; preds = %54
  br label %56

56:                                               ; preds = %55, %22
  %57 = load ptr, ptr %3, align 8, !tbaa !126
  %58 = call ptr @H5O_get_proxy(ptr noundef %57)
  store ptr %58, ptr %5, align 8, !tbaa !128
  %59 = icmp eq ptr null, %58
  br i1 %59, label %60, label %79

60:                                               ; preds = %56
  br label %61

61:                                               ; preds = %60
  br label %62

62:                                               ; preds = %61
  br label %63

63:                                               ; preds = %62
  %64 = load i64, ptr @H5E_DATASET_g, align 8, !tbaa !10
  %65 = load i64, ptr @H5E_CANTGET_g, align 8, !tbaa !10
  %66 = call i32 (ptr, ptr, i32, i64, i64, ptr, ...) @H5E_printf_stack(ptr noundef @.str.2, ptr noundef @__func__.H5D__earray_idx_depend, i32 noundef 702, i64 noundef %64, i64 noundef %65, ptr noundef @.str.22)
  br label %67

67:                                               ; preds = %63
  br label %68

68:                                               ; preds = %67
  store i8 1, ptr %7, align 1, !tbaa !14
  %69 = load i8, ptr %7, align 1, !tbaa !14, !range !16, !noundef !17
  %70 = trunc i8 %69 to i1
  %71 = zext i1 %70 to i8
  store i8 %71, ptr %7, align 1, !tbaa !14
  br label %72

72:                                               ; preds = %68
  br label %73

73:                                               ; preds = %72
  br label %74

74:                                               ; preds = %73
  store i32 -1, ptr %6, align 4, !tbaa !12
  br label %109

75:                                               ; No predecessors!
  br label %76

76:                                               ; preds = %75
  br label %77

77:                                               ; preds = %76
  br label %78

78:                                               ; preds = %77
  br label %79

79:                                               ; preds = %78, %56
  %80 = load ptr, ptr %2, align 8, !tbaa !3
  %81 = getelementptr inbounds nuw %struct.H5D_chk_idx_info_t, ptr %80, i32 0, i32 3
  %82 = load ptr, ptr %81, align 8, !tbaa !27
  %83 = getelementptr inbounds nuw %struct.H5O_storage_chunk_t, ptr %82, i32 0, i32 3
  %84 = getelementptr inbounds nuw %struct.H5O_storage_chunk_earray_t, ptr %83, i32 0, i32 1
  %85 = load ptr, ptr %84, align 8, !tbaa !26
  %86 = load ptr, ptr %5, align 8, !tbaa !128
  %87 = call i32 @H5EA_depend(ptr noundef %85, ptr noundef %86)
  %88 = icmp slt i32 %87, 0
  br i1 %88, label %89, label %108

89:                                               ; preds = %79
  br label %90

90:                                               ; preds = %89
  br label %91

91:                                               ; preds = %90
  br label %92

92:                                               ; preds = %91
  %93 = load i64, ptr @H5E_DATASET_g, align 8, !tbaa !10
  %94 = load i64, ptr @H5E_CANTDEPEND_g, align 8, !tbaa !10
  %95 = call i32 (ptr, ptr, i32, i64, i64, ptr, ...) @H5E_printf_stack(ptr noundef @.str.2, ptr noundef @__func__.H5D__earray_idx_depend, i32 noundef 707, i64 noundef %93, i64 noundef %94, ptr noundef @.str.23)
  br label %96

96:                                               ; preds = %92
  br label %97

97:                                               ; preds = %96
  store i8 1, ptr %7, align 1, !tbaa !14
  %98 = load i8, ptr %7, align 1, !tbaa !14, !range !16, !noundef !17
  %99 = trunc i8 %98 to i1
  %100 = zext i1 %99 to i8
  store i8 %100, ptr %7, align 1, !tbaa !14
  br label %101

101:                                              ; preds = %97
  br label %102

102:                                              ; preds = %101
  br label %103

103:                                              ; preds = %102
  store i32 -1, ptr %6, align 4, !tbaa !12
  br label %109

104:                                              ; No predecessors!
  br label %105

105:                                              ; preds = %104
  br label %106

106:                                              ; preds = %105
  br label %107

107:                                              ; preds = %106
  br label %108

108:                                              ; preds = %107, %79
  br label %109

109:                                              ; preds = %108, %103, %74, %51
  %110 = load ptr, ptr %3, align 8, !tbaa !126
  %111 = icmp ne ptr %110, null
  br i1 %111, label %112, label %132

112:                                              ; preds = %109
  %113 = load ptr, ptr %3, align 8, !tbaa !126
  %114 = call i32 @H5O_unprotect(ptr noundef %4, ptr noundef %113, i32 noundef 0)
  %115 = icmp slt i32 %114, 0
  br i1 %115, label %116, label %132

116:                                              ; preds = %112
  br label %117

117:                                              ; preds = %116
  br label %118

118:                                              ; preds = %117
  br label %119

119:                                              ; preds = %118
  %120 = load i64, ptr @H5E_DATASET_g, align 8, !tbaa !10
  %121 = load i64, ptr @H5E_CANTUNPROTECT_g, align 8, !tbaa !10
  %122 = call i32 (ptr, ptr, i32, i64, i64, ptr, ...) @H5E_printf_stack(ptr noundef @.str.2, ptr noundef @__func__.H5D__earray_idx_depend, i32 noundef 712, i64 noundef %120, i64 noundef %121, ptr noundef @.str.24)
  br label %123

123:                                              ; preds = %119
  br label %124

124:                                              ; preds = %123
  store i8 1, ptr %7, align 1, !tbaa !14
  %125 = load i8, ptr %7, align 1, !tbaa !14, !range !16, !noundef !17
  %126 = trunc i8 %125 to i1
  %127 = zext i1 %126 to i8
  store i8 %127, ptr %7, align 1, !tbaa !14
  br label %128

128:                                              ; preds = %124
  br label %129

129:                                              ; preds = %128
  store i32 -1, ptr %6, align 4, !tbaa !12
  br label %130

130:                                              ; preds = %129
  br label %131

131:                                              ; preds = %130
  br label %132

132:                                              ; preds = %131, %112, %109
  br label %133

133:                                              ; preds = %132, %14
  %134 = load i32, ptr %6, align 4, !tbaa !12
  call void @llvm.lifetime.end.p0(i64 1, ptr %7) #8
  call void @llvm.lifetime.end.p0(i64 4, ptr %6) #8
  call void @llvm.lifetime.end.p0(i64 8, ptr %5) #8
  call void @llvm.lifetime.end.p0(i64 24, ptr %4) #8
  call void @llvm.lifetime.end.p0(i64 8, ptr %3) #8
  ret i32 %134
}