; Function Attrs: nounwind uwtable
define internal fastcc range(i32 -1, 1) i32 @H5D__earray_idx_depend(ptr noundef readonly captures(none) %0) unnamed_addr #0 {
  %2 = alloca %struct.H5O_loc_t, align 8
  call void @llvm.lifetime.start.p0(i64 24, ptr nonnull %2) #11
  %3 = load i8, ptr @H5D_init_g, align 1, !tbaa !3, !range !7, !noundef !8
  %4 = trunc nuw i8 %3 to i1
  %5 = load i8, ptr @H5_libterm_g, align 1, !range !7
  %6 = trunc nuw i8 %5 to i1
  %7 = xor i1 %6, true
  %8 = select i1 %4, i1 true, i1 %7
  br i1 %8, label %9, label %47, !prof !9

9:                                                ; preds = %1
  %10 = call i32 @H5O_loc_reset(ptr noundef nonnull %2) #11
  %11 = load ptr, ptr %0, align 8, !tbaa !34
  store ptr %11, ptr %2, align 8, !tbaa !92
  %12 = getelementptr inbounds nuw i8, ptr %0, i64 24
  %13 = load ptr, ptr %12, align 8, !tbaa !22
  %14 = getelementptr inbounds nuw i8, ptr %13, i64 24
  %15 = load i64, ptr %14, align 8, !tbaa !21
  %16 = getelementptr inbounds nuw i8, ptr %2, i64 8
  store i64 %15, ptr %16, align 8, !tbaa !94
  %17 = call ptr @H5O_protect(ptr noundef nonnull %2, i32 noundef 128, i1 noundef zeroext true) #11
  %18 = icmp eq ptr %17, null
  br i1 %18, label %36, label %19

19:                                               ; preds = %9
  %20 = call ptr @H5O_get_proxy(ptr noundef nonnull %17) #11
  %21 = icmp eq ptr %20, null
  br i1 %21, label %22, label %26

22:                                               ; preds = %19
  %23 = load i64, ptr @H5E_DATASET_g, align 8, !tbaa !10
  %24 = load i64, ptr @H5E_CANTGET_g, align 8, !tbaa !10
  %25 = call i32 (ptr, ptr, i32, i64, i64, ptr, ...) @H5E_printf_stack(ptr noundef nonnull @.str.2, ptr noundef nonnull @__func__.H5D__earray_idx_depend, i32 noundef 702, i64 noundef %23, i64 noundef %24, ptr noundef nonnull @.str.22) #11
  br label %40

26:                                               ; preds = %19
  %27 = load ptr, ptr %12, align 8, !tbaa !22
  %28 = getelementptr inbounds nuw i8, ptr %27, i64 32
  %29 = load ptr, ptr %28, align 8, !tbaa !21
  %30 = call i32 @H5EA_depend(ptr noundef %29, ptr noundef nonnull %20) #11
  %31 = icmp slt i32 %30, 0
  br i1 %31, label %32, label %40

32:                                               ; preds = %26
  %33 = load i64, ptr @H5E_DATASET_g, align 8, !tbaa !10
  %34 = load i64, ptr @H5E_CANTDEPEND_g, align 8, !tbaa !10
  %35 = call i32 (ptr, ptr, i32, i64, i64, ptr, ...) @H5E_printf_stack(ptr noundef nonnull @.str.2, ptr noundef nonnull @__func__.H5D__earray_idx_depend, i32 noundef 707, i64 noundef %33, i64 noundef %34, ptr noundef nonnull @.str.23) #11
  br label %40

36:                                               ; preds = %9
  %37 = load i64, ptr @H5E_DATASET_g, align 8, !tbaa !10
  %38 = load i64, ptr @H5E_CANTPROTECT_g, align 8, !tbaa !10
  %39 = call i32 (ptr, ptr, i32, i64, i64, ptr, ...) @H5E_printf_stack(ptr noundef nonnull @.str.2, ptr noundef nonnull @__func__.H5D__earray_idx_depend, i32 noundef 698, i64 noundef %37, i64 noundef %38, ptr noundef nonnull @.str.21) #11
  br label %47

40:                                               ; preds = %26, %32, %22
  %.1.ph = phi i32 [ 0, %26 ], [ -1, %32 ], [ -1, %22 ]
  %41 = call i32 @H5O_unprotect(ptr noundef nonnull %2, ptr noundef nonnull %17, i32 noundef 0) #11
  %42 = icmp slt i32 %41, 0
  br i1 %42, label %43, label %47

43:                                               ; preds = %40
  %44 = load i64, ptr @H5E_DATASET_g, align 8, !tbaa !10
  %45 = load i64, ptr @H5E_CANTUNPROTECT_g, align 8, !tbaa !10
  %46 = call i32 (ptr, ptr, i32, i64, i64, ptr, ...) @H5E_printf_stack(ptr noundef nonnull @.str.2, ptr noundef nonnull @__func__.H5D__earray_idx_depend, i32 noundef 712, i64 noundef %44, i64 noundef %45, ptr noundef nonnull @.str.24) #11
  br label %47

47:                                               ; preds = %36, %40, %43, %1
  %.0 = phi i32 [ -1, %43 ], [ %.1.ph, %40 ], [ -1, %36 ], [ 0, %1 ]
  call void @llvm.lifetime.end.p0(i64 24, ptr nonnull %2) #11
  ret i32 %.0
}